target datalayout = "e-m:e-p270:32:32-p271:32:32-p272:64:64-i64:64-i128:128-f80:128-n8:16:32:64-S128"
target triple = "x86_64-unknown-linux-gnu"

%struct.QEMUClock = type { %struct.anon.0, i32, i8 }
%struct.anon.0 = type { ptr }
%struct.QEMUTimerList = type { ptr, %struct.QemuMutex, ptr, %struct.anon, ptr, ptr, %struct.QemuEvent }
%struct.QemuMutex = type { %union.pthread_mutex_t, i8 }
%union.pthread_mutex_t = type { %struct.__pthread_mutex_s }
%struct.__pthread_mutex_s = type { i32, i32, i32, i32, i32, i16, i16, %struct.__pthread_internal_list }
%struct.__pthread_internal_list = type { ptr, ptr }
%struct.anon = type { ptr, ptr }
%struct.QemuEvent = type { i32, i8 }

@qemu_clocks = internal global [4 x %struct.QEMUClock] zeroinitializer, align 16

; Function Attrs: nounwind sspstrong uwtable
define internal ptr @qemu_clock_ptr(i32 noundef %type) #0 {
entry:
  %type.addr = alloca i32, align 4
  store i32 %type, ptr %type.addr, align 4
  %0 = load i32, ptr %type.addr, align 4
  %idxprom = zext i32 %0 to i64
  %arrayidx = getelementptr [4 x %struct.QEMUClock], ptr @qemu_clocks, i64 0, i64 %idxprom
  ret ptr %arrayidx
}

; Function Attrs: nounwind sspstrong uwtable
define dso_local ptr @timerlist_new(i32 noundef %type, ptr noundef %cb, ptr noundef %opaque) #0 {
entry:
  %type.addr = alloca i32, align 4
  %cb.addr = alloca ptr, align 8
  %opaque.addr = alloca ptr, align 8
  %timer_list = alloca ptr, align 8
  %clock = alloca ptr, align 8
  store i32 %type, ptr %type.addr, align 4
  store ptr %cb, ptr %cb.addr, align 8
  store ptr %opaque, ptr %opaque.addr, align 8
  %0 = load i32, ptr %type.addr, align 4
  %call = call ptr @qemu_clock_ptr(i32 noundef %0)
  store ptr %call, ptr %clock, align 8
  %call1 = call noalias ptr @g_malloc0_n(i64 noundef 1, i64 noundef 104) #6
  store ptr %call1, ptr %timer_list, align 8
  %1 = load ptr, ptr %timer_list, align 8
  %timers_done_ev = getelementptr inbounds %struct.QEMUTimerList, ptr %1, i32 0, i32 6
  call void @qemu_event_init(ptr noundef %timers_done_ev, i1 noundef zeroext true)
  %2 = load ptr, ptr %clock, align 8
  %3 = load ptr, ptr %timer_list, align 8
  %clock2 = getelementptr inbounds %struct.QEMUTimerList, ptr %3, i32 0, i32 0
  store ptr %2, ptr %clock2, align 8
  %4 = load ptr, ptr %cb.addr, align 8
  %5 = load ptr, ptr %timer_list, align 8
  %notify_cb = getelementptr inbounds %struct.QEMUTimerList, ptr %5, i32 0, i32 4
  store ptr %4, ptr %notify_cb, align 8
  %6 = load ptr, ptr %opaque.addr, align 8
  %7 = load ptr, ptr %timer_list, align 8
  %notify_opaque = getelementptr inbounds %struct.QEMUTimerList, ptr %7, i32 0, i32 5
  store ptr %6, ptr %notify_opaque, align 8
  %8 = load ptr, ptr %timer_list, align 8
  %active_timers_lock = getelementptr inbounds %struct.QEMUTimerList, ptr %8, i32 0, i32 1
  call void @qemu_mutex_init(ptr noundef %active_timers_lock)
  br label %do.body

do.body:                                          ; preds = %entry
  %9 = load ptr, ptr %clock, align 8
  %timerlists = getelementptr inbounds %struct.QEMUClock, ptr %9, i32 0, i32 0
  %lh_first = getelementptr inbounds %struct.anon.0, ptr %timerlists, i32 0, i32 0
  %10 = load ptr, ptr %lh_first, align 8
  %11 = load ptr, ptr %timer_list, align 8
  %list = getelementptr inbounds %struct.QEMUTimerList, ptr %11, i32 0, i32 3
  %le_next = getelementptr inbounds %struct.anon, ptr %list, i32 0, i32 0
  store ptr %10, ptr %le_next, align 8
  %cmp = icmp ne ptr %10, null
  br i1 %cmp, label %if.then, label %if.end

if.then:                                          ; preds = %do.body
  %12 = load ptr, ptr %timer_list, align 8
  %list3 = getelementptr inbounds %struct.QEMUTimerList, ptr %12, i32 0, i32 3
  %le_next4 = getelementptr inbounds %struct.anon, ptr %list3, i32 0, i32 0
  %13 = load ptr, ptr %clock, align 8
  %timerlists5 = getelementptr inbounds %struct.QEMUClock, ptr %13, i32 0, i32 0
  %lh_first6 = getelementptr inbounds %struct.anon.0, ptr %timerlists5, i32 0, i32 0
  %14 = load ptr, ptr %lh_first6, align 8
  %list7 = getelementptr inbounds %struct.QEMUTimerList, ptr %14, i32 0, i32 3
  %le_prev = getelementptr inbounds %struct.anon, ptr %list7, i32 0, i32 1
  store ptr %le_next4, ptr %le_prev, align 8
  br label %if.end

if.end:                                           ; preds = %if.then, %do.body
  %15 = load ptr, ptr %timer_list, align 8
  %16 = load ptr, ptr %clock, align 8
  %timerlists8 = getelementptr inbounds %struct.QEMUClock, ptr %16, i32 0, i32 0
  %lh_first9 = getelementptr inbounds %struct.anon.0, ptr %timerlists8, i32 0, i32 0
  store ptr %15, ptr %lh_first9, align 8
  %17 = load ptr, ptr %clock, align 8
  %timerlists10 = getelementptr inbounds %struct.QEMUClock, ptr %17, i32 0, i32 0
  %lh_first11 = getelementptr inbounds %struct.anon.0, ptr %timerlists10, i32 0, i32 0
  %18 = load ptr, ptr %timer_list, align 8
  %list12 = getelementptr inbounds %struct.QEMUTimerList, ptr %18, i32 0, i32 3
  %le_prev13 = getelementptr inbounds %struct.anon, ptr %list12, i32 0, i32 1
  store ptr %lh_first11, ptr %le_prev13, align 8
  br label %do.end

do.end:                                           ; preds = %if.end
  %19 = load ptr, ptr %timer_list, align 8
  ret ptr %19
}