; Function Attrs: nounwind sspstrong uwtable
define dso_local noundef ptr @timerlist_new(i32 noundef %type, ptr noundef %cb, ptr noundef %opaque) local_unnamed_addr #0 {
entry:
  %idxprom.i = zext i32 %type to i64
  %arrayidx.i = getelementptr [4 x %struct.QEMUClock], ptr @qemu_clocks, i64 0, i64 %idxprom.i
  %call1 = tail call noalias dereferenceable_or_null(104) ptr @g_malloc0_n(i64 noundef 1, i64 noundef 104) #16
  %timers_done_ev = getelementptr inbounds nuw i8, ptr %call1, i64 96
  tail call void @qemu_event_init(ptr noundef nonnull %timers_done_ev, i1 noundef zeroext true) #17
  store ptr %arrayidx.i, ptr %call1, align 8
  %notify_cb = getelementptr inbounds nuw i8, ptr %call1, i64 80
  store ptr %cb, ptr %notify_cb, align 8
  %notify_opaque = getelementptr inbounds nuw i8, ptr %call1, i64 88
  store ptr %opaque, ptr %notify_opaque, align 8
  %active_timers_lock = getelementptr inbounds nuw i8, ptr %call1, i64 8
  tail call void @qemu_mutex_init(ptr noundef nonnull %active_timers_lock) #17
  %0 = load ptr, ptr %arrayidx.i, align 16
  %list = getelementptr inbounds nuw i8, ptr %call1, i64 64
  store ptr %0, ptr %list, align 8
  %cmp.not = icmp eq ptr %0, null
  br i1 %cmp.not, label %if.end, label %if.then

if.then:                                          ; preds = %entry
  %le_prev = getelementptr inbounds nuw i8, ptr %0, i64 72
  store ptr %list, ptr %le_prev, align 8
  br label %if.end

if.end:                                           ; preds = %if.then, %entry
  store ptr %call1, ptr %arrayidx.i, align 16
  %le_prev13 = getelementptr inbounds nuw i8, ptr %call1, i64 72
  store ptr %arrayidx.i, ptr %le_prev13, align 8
  ret ptr %call1
}